target datalayout = "e-m:e-p270:32:32-p271:32:32-p272:64:64-i64:64-i128:128-f80:128-n8:16:32:64-S128"
target triple = "x86_64-unknown-linux-gnu"

%"struct.node::AssertionInfo" = type { ptr, ptr, ptr }
%"class.node::MemoryRetainer" = type { ptr }
%"class.node::quic::Session::Application" = type { %"class.node::MemoryRetainer", ptr }
%"class.node::BaseObjectPtrImpl.26" = type { %union.anon.27 }
%union.anon.27 = type { ptr }
%struct.ngtcp2_vec = type { ptr, i64 }
%struct.sockaddr_storage = type { i16, [118 x i8], i64 }
%struct.ngtcp2_path_storage = type { %struct.ngtcp2_path, %struct.sockaddr_storage, %struct.sockaddr_storage }
%struct.ngtcp2_path = type { %struct.ngtcp2_addr, %struct.ngtcp2_addr, ptr }
%struct.ngtcp2_addr = type { ptr, i32 }
%"struct.node::quic::Session::Application::StreamData" = type { i64, i64, i64, i32, [16 x %struct.ngtcp2_vec], ptr, %"class.node::BaseObjectPtrImpl.26" }

@_ZZN4node4quic7Session11Application12WriteVStreamEPNS0_11PathStorageEPhPlRKNS2_10StreamDataEE4args = internal constant %"struct.node::AssertionInfo" { ptr @.str.12, ptr @.str.13, ptr @.str.14 }, align 8

; Function Attrs: mustprogress nounwind uwtable
define dso_local noundef i64 @_ZN4node4quic7Session11Application12WriteVStreamEPNS0_11PathStorageEPhPlRKNS2_10StreamDataE(ptr noundef nonnull align 8 dereferenceable(16) %this, ptr noundef %path, ptr noundef %buf, ptr noundef %ndatalen, ptr noundef nonnull align 8 dereferenceable(304) %stream_data) #4 align 2 {
entry:
  %this.addr = alloca ptr, align 8
  %path.addr = alloca ptr, align 8
  %buf.addr = alloca ptr, align 8
  %ndatalen.addr = alloca ptr, align 8
  %stream_data.addr = alloca ptr, align 8
  %flags = alloca i32, align 4
  %ret = alloca i64, align 8
  store ptr %this, ptr %this.addr, align 8
  store ptr %path, ptr %path.addr, align 8
  store ptr %buf, ptr %buf.addr, align 8
  store ptr %ndatalen, ptr %ndatalen.addr, align 8
  store ptr %stream_data, ptr %stream_data.addr, align 8
  %this1 = load ptr, ptr %this.addr, align 8
  br label %do.body

do.body:                                          ; preds = %entry
  %0 = load ptr, ptr %stream_data.addr, align 8
  %count = getelementptr inbounds %"struct.node::quic::Session::Application::StreamData", ptr %0, i32 0, i32 0
  %1 = load i64, ptr %count, align 8
  %cmp = icmp ule i64 %1, 16
  %lnot = xor i1 %cmp, true
  %lnot2 = xor i1 %lnot, true
  %lnot3 = xor i1 %lnot2, true
  br i1 %lnot3, label %if.then, label %if.end

if.then:                                          ; preds = %do.body
  br label %do.body4

do.body4:                                         ; preds = %if.then
  call void @_ZN4node6AssertERKNS_13AssertionInfoE(ptr noundef nonnull align 8 dereferenceable(24) @_ZZN4node4quic7Session11Application12WriteVStreamEPNS0_11PathStorageEPhPlRKNS2_10StreamDataEE4args)
  call void @abort() #14
  unreachable

do.end:                                           ; No predecessors!
  br label %if.end

if.end:                                           ; preds = %do.end, %do.body
  br label %do.end5

do.end5:                                          ; preds = %if.end
  store i32 0, ptr %flags, align 4
  %2 = load ptr, ptr %stream_data.addr, align 8
  %remaining = getelementptr inbounds %"struct.node::quic::Session::Application::StreamData", ptr %2, i32 0, i32 1
  %3 = load i64, ptr %remaining, align 8
  %cmp6 = icmp ugt i64 %3, 0
  br i1 %cmp6, label %if.then7, label %if.end8

if.then7:                                         ; preds = %do.end5
  %4 = load i32, ptr %flags, align 4
  %or = or i32 %4, 1
  store i32 %or, ptr %flags, align 4
  br label %if.end8

if.end8:                                          ; preds = %if.then7, %do.end5
  %5 = load ptr, ptr %stream_data.addr, align 8
  %fin = getelementptr inbounds %"struct.node::quic::Session::Application::StreamData", ptr %5, i32 0, i32 3
  %6 = load i32, ptr %fin, align 8
  %tobool = icmp ne i32 %6, 0
  br i1 %tobool, label %if.then9, label %if.end11

if.then9:                                         ; preds = %if.end8
  %7 = load i32, ptr %flags, align 4
  %or10 = or i32 %7, 2
  store i32 %or10, ptr %flags, align 4
  br label %if.end11

if.end11:                                         ; preds = %if.then9, %if.end8
  %session_ = getelementptr inbounds %"class.node::quic::Session::Application", ptr %this1, i32 0, i32 1
  %8 = load ptr, ptr %session_, align 8
  %call = call noundef ptr @_ZNK4node4quic7SessioncvP11ngtcp2_connEv(ptr noundef nonnull align 8 dereferenceable(2616) %8)
  %9 = load ptr, ptr %path.addr, align 8
  %path12 = getelementptr inbounds %struct.ngtcp2_path_storage, ptr %9, i32 0, i32 0
  %10 = load ptr, ptr %buf.addr, align 8
  %session_13 = getelementptr inbounds %"class.node::quic::Session::Application", ptr %this1, i32 0, i32 1
  %11 = load ptr, ptr %session_13, align 8
  %call14 = call noundef ptr @_ZNK4node4quic7SessioncvP11ngtcp2_connEv(ptr noundef nonnull align 8 dereferenceable(2616) %11)
  %call15 = call i64 @ngtcp2_conn_get_max_udp_payload_size(ptr noundef %call14)
  %12 = load ptr, ptr %ndatalen.addr, align 8
  %13 = load i32, ptr %flags, align 4
  %14 = load ptr, ptr %stream_data.addr, align 8
  %id = getelementptr inbounds %"struct.node::quic::Session::Application::StreamData", ptr %14, i32 0, i32 2
  %15 = load i64, ptr %id, align 8
  %16 = load ptr, ptr %stream_data.addr, align 8
  %buf16 = getelementptr inbounds %"struct.node::quic::Session::Application::StreamData", ptr %16, i32 0, i32 5
  %17 = load ptr, ptr %buf16, align 8
  %18 = load ptr, ptr %stream_data.addr, align 8
  %count17 = getelementptr inbounds %"struct.node::quic::Session::Application::StreamData", ptr %18, i32 0, i32 0
  %19 = load i64, ptr %count17, align 8
  %call18 = call i64 @uv_hrtime()
  %call19 = call i64 @ngtcp2_conn_writev_stream_versioned(ptr noundef %call, ptr noundef %path12, i32 noundef 1, ptr noundef null, ptr noundef %10, i64 noundef %call15, ptr noundef %12, i32 noundef %13, i64 noundef %15, ptr noundef %17, i64 noundef %19, i64 noundef %call18)
  store i64 %call19, ptr %ret, align 8
  %20 = load i64, ptr %ret, align 8
  ret i64 %20
}