; Function Attrs: mustprogress nounwind uwtable
define dso_local noundef i64 @_ZN4node4quic7Session11Application12WriteVStreamEPNS0_11PathStorageEPhPlRKNS2_10StreamDataE(ptr nocapture noundef nonnull readonly align 8 dereferenceable(16) %this, ptr noundef %path, ptr noundef %buf, ptr noundef %ndatalen, ptr nocapture noundef nonnull readonly align 8 dereferenceable(304) %stream_data) local_unnamed_addr #3 align 2 {
entry:
  %0 = load i64, ptr %stream_data, align 8
  %cmp = icmp ugt i64 %0, 16
  br i1 %cmp, label %do.body4, label %do.end5

do.body4:                                         ; preds = %entry
  tail call void @_ZN4node6AssertERKNS_13AssertionInfoE(ptr noundef nonnull align 8 dereferenceable(24) @_ZZN4node4quic7Session11Application12WriteVStreamEPNS0_11PathStorageEPhPlRKNS2_10StreamDataEE4args) #18
  tail call void @abort() #19
  unreachable

do.end5:                                          ; preds = %entry
  %remaining = getelementptr inbounds i8, ptr %stream_data, i64 8
  %1 = load i64, ptr %remaining, align 8
  %cmp6.not = icmp ne i64 %1, 0
  %spec.select = zext i1 %cmp6.not to i32
  %fin = getelementptr inbounds i8, ptr %stream_data, i64 24
  %2 = load i32, ptr %fin, align 8
  %tobool.not = icmp eq i32 %2, 0
  %or10 = or disjoint i32 %spec.select, 2
  %flags.1 = select i1 %tobool.not, i32 %spec.select, i32 %or10
  %session_ = getelementptr inbounds i8, ptr %this, i64 8
  %3 = load ptr, ptr %session_, align 8
  %call = tail call noundef ptr @_ZNK4node4quic7SessioncvP11ngtcp2_connEv(ptr noundef nonnull align 8 dereferenceable(2616) %3) #18
  %4 = load ptr, ptr %session_, align 8
  %call14 = tail call noundef ptr @_ZNK4node4quic7SessioncvP11ngtcp2_connEv(ptr noundef nonnull align 8 dereferenceable(2616) %4) #18
  %call15 = tail call i64 @ngtcp2_conn_get_max_udp_payload_size(ptr noundef %call14) #18
  %id = getelementptr inbounds i8, ptr %stream_data, i64 16
  %5 = load i64, ptr %id, align 8
  %buf16 = getelementptr inbounds i8, ptr %stream_data, i64 288
  %6 = load ptr, ptr %buf16, align 8
  %7 = load i64, ptr %stream_data, align 8
  %call18 = tail call i64 @uv_hrtime() #18
  %call19 = tail call i64 @ngtcp2_conn_writev_stream_versioned(ptr noundef %call, ptr noundef %path, i32 noundef 1, ptr noundef null, ptr noundef %buf, i64 noundef %call15, ptr noundef %ndatalen, i32 noundef %flags.1, i64 noundef %5, ptr noundef %6, i64 noundef %7, i64 noundef %call18) #18
  ret i64 %call19
}